target datalayout = "e-m:e-p270:32:32-p271:32:32-p272:64:64-i64:64-i128:128-f80:128-n8:16:32:64-S128"
target triple = "x86_64-pc-linux-gnu"

%struct.Super_ManStruct_t_ = type { ptr, i32, i32, i32, i32, float, float, i32, i32, i32, [10 x ptr], i32, ptr, ptr, ptr, ptr, i32, i32, i32, i32, i32, i32, i32, i64, i32, i32, i64, i64 }
%struct.Super_GateStruct_t_ = type { ptr, i32, [2 x i32], [6 x ptr], float, [6 x float], float, ptr }

@Super_WriteLibraryGateName.Buffer = internal global [2000 x i8] zeroinitializer, align 16
@.str.37 = private unnamed_addr constant [7 x i8] c"%04d  \00", align 1
@.str.38 = private unnamed_addr constant [9 x i8] c"   %5.2f\00", align 1
@.str.39 = private unnamed_addr constant [3 x i8] c"  \00", align 1
@.str.40 = private unnamed_addr constant [7 x i8] c" %5.2f\00", align 1
@.str.41 = private unnamed_addr constant [4 x i8] c"   \00", align 1
@.str.42 = private unnamed_addr constant [3 x i8] c"%s\00", align 1
@.str.43 = private unnamed_addr constant [2 x i8] c"\0A\00", align 1

; Function Attrs: nounwind uwtable
define ptr @Super_WriteLibraryGateName(ptr noundef %0) #0 {
  %2 = alloca ptr, align 8
  store ptr %0, ptr %2, align 8, !tbaa !55
  store i8 0, ptr @Super_WriteLibraryGateName.Buffer, align 16, !tbaa !107
  %3 = load ptr, ptr %2, align 8, !tbaa !55
  call void @Super_WriteLibraryGateName_rec(ptr noundef %3, ptr noundef @Super_WriteLibraryGateName.Buffer)
  ret ptr @Super_WriteLibraryGateName.Buffer
}

; Function Attrs: nounwind uwtable
define void @Super_WriteLibraryGate(ptr noundef %0, ptr noundef %1, ptr noundef %2, i32 noundef %3) #0 {
  %5 = alloca ptr, align 8
  %6 = alloca ptr, align 8
  %7 = alloca ptr, align 8
  %8 = alloca i32, align 4
  %9 = alloca i32, align 4
  store ptr %0, ptr %5, align 8, !tbaa !14
  store ptr %1, ptr %6, align 8, !tbaa !20
  store ptr %2, ptr %7, align 8, !tbaa !55
  store i32 %3, ptr %8, align 4, !tbaa !8
  call void @llvm.lifetime.start.p0(i64 4, ptr %9) #12
  %10 = load ptr, ptr %5, align 8, !tbaa !14
  %11 = load i32, ptr %8, align 4, !tbaa !8
  %12 = call i32 (ptr, ptr, ...) @fprintf(ptr noundef %10, ptr noundef @.str.37, i32 noundef %11) #12
  %13 = load ptr, ptr %5, align 8, !tbaa !14
  %14 = load ptr, ptr %7, align 8, !tbaa !55
  %15 = getelementptr inbounds nuw %struct.Super_GateStruct_t_, ptr %14, i32 0, i32 2
  %16 = getelementptr inbounds [2 x i32], ptr %15, i64 0, i64 0
  %17 = load ptr, ptr %6, align 8, !tbaa !20
  %18 = getelementptr inbounds nuw %struct.Super_ManStruct_t_, ptr %17, i32 0, i32 2
  %19 = load i32, ptr %18, align 4, !tbaa !53
  call void @Extra_PrintBinary(ptr noundef %13, ptr noundef %16, i32 noundef %19)
  %20 = load ptr, ptr %5, align 8, !tbaa !14
  %21 = load ptr, ptr %7, align 8, !tbaa !55
  %22 = getelementptr inbounds nuw %struct.Super_GateStruct_t_, ptr %21, i32 0, i32 6
  %23 = load float, ptr %22, align 4, !tbaa !69
  %24 = fpext float %23 to double
  %25 = call i32 (ptr, ptr, ...) @fprintf(ptr noundef %20, ptr noundef @.str.38, double noundef %24) #12
  %26 = load ptr, ptr %5, align 8, !tbaa !14
  %27 = call i32 (ptr, ptr, ...) @fprintf(ptr noundef %26, ptr noundef @.str.39) #12
  store i32 0, ptr %9, align 4, !tbaa !8
  br label %28

28:                                               ; preds = %56, %4
  %29 = load i32, ptr %9, align 4, !tbaa !8
  %30 = load ptr, ptr %6, align 8, !tbaa !20
  %31 = getelementptr inbounds nuw %struct.Super_ManStruct_t_, ptr %30, i32 0, i32 1
  %32 = load i32, ptr %31, align 8, !tbaa !37
  %33 = icmp slt i32 %29, %32
  br i1 %33, label %34, label %59

34:                                               ; preds = %28
  %35 = load ptr, ptr %5, align 8, !tbaa !14
  %36 = load ptr, ptr %7, align 8, !tbaa !55
  %37 = getelementptr inbounds nuw %struct.Super_GateStruct_t_, ptr %36, i32 0, i32 5
  %38 = load i32, ptr %9, align 4, !tbaa !8
  %39 = sext i32 %38 to i64
  %40 = getelementptr inbounds [6 x float], ptr %37, i64 0, i64 %39
  %41 = load float, ptr %40, align 4, !tbaa !10
  %42 = fpext float %41 to double
  %43 = fcmp oeq double %42, -9.999000e+03
  br i1 %43, label %44, label %45

44:                                               ; preds = %34
  br label %53

45:                                               ; preds = %34
  %46 = load ptr, ptr %7, align 8, !tbaa !55
  %47 = getelementptr inbounds nuw %struct.Super_GateStruct_t_, ptr %46, i32 0, i32 5
  %48 = load i32, ptr %9, align 4, !tbaa !8
  %49 = sext i32 %48 to i64
  %50 = getelementptr inbounds [6 x float], ptr %47, i64 0, i64 %49
  %51 = load float, ptr %50, align 4, !tbaa !10
  %52 = fpext float %51 to double
  br label %53

53:                                               ; preds = %45, %44
  %54 = phi double [ 0.000000e+00, %44 ], [ %52, %45 ]
  %55 = call i32 (ptr, ptr, ...) @fprintf(ptr noundef %35, ptr noundef @.str.40, double noundef %54) #12
  br label %56

56:                                               ; preds = %53
  %57 = load i32, ptr %9, align 4, !tbaa !8
  %58 = add nsw i32 %57, 1
  store i32 %58, ptr %9, align 4, !tbaa !8
  br label %28, !llvm.loop !110

59:                                               ; preds = %28
  %60 = load ptr, ptr %5, align 8, !tbaa !14
  %61 = load ptr, ptr %7, align 8, !tbaa !55
  %62 = getelementptr inbounds nuw %struct.Super_GateStruct_t_, ptr %61, i32 0, i32 4
  %63 = load float, ptr %62, align 8, !tbaa !72
  %64 = fpext float %63 to double
  %65 = call i32 (ptr, ptr, ...) @fprintf(ptr noundef %60, ptr noundef @.str.38, double noundef %64) #12
  %66 = load ptr, ptr %5, align 8, !tbaa !14
  %67 = call i32 (ptr, ptr, ...) @fprintf(ptr noundef %66, ptr noundef @.str.41) #12
  %68 = load ptr, ptr %5, align 8, !tbaa !14
  %69 = load ptr, ptr %7, align 8, !tbaa !55
  %70 = call ptr @Super_WriteLibraryGateName(ptr noundef %69)
  %71 = call i32 (ptr, ptr, ...) @fprintf(ptr noundef %68, ptr noundef @.str.42, ptr noundef %70) #12
  %72 = load ptr, ptr %5, align 8, !tbaa !14
  %73 = call i32 (ptr, ptr, ...) @fprintf(ptr noundef %72, ptr noundef @.str.43) #12
  call void @llvm.lifetime.end.p0(i64 4, ptr %9) #12
  ret void
}