; Function Attrs: nounwind uwtable
define void @Super_WriteLibraryGate(ptr noundef %0, ptr noundef readonly captures(none) %1, ptr noundef %2, i32 noundef %3) local_unnamed_addr #0 {
  %5 = tail call i32 (ptr, ptr, ...) @fprintf(ptr noundef %0, ptr noundef nonnull @.str.37, i32 noundef %3) #20
  %6 = getelementptr inbounds nuw i8, ptr %2, i64 12
  %7 = getelementptr inbounds nuw i8, ptr %1, i64 12
  %8 = load i32, ptr %7, align 4, !tbaa !36
  tail call void @Extra_PrintBinary(ptr noundef %0, ptr noundef nonnull %6, i32 noundef %8) #20
  %9 = getelementptr inbounds nuw i8, ptr %2, i64 100
  %10 = load float, ptr %9, align 4, !tbaa !59
  %11 = fpext float %10 to double
  %12 = tail call i32 (ptr, ptr, ...) @fprintf(ptr noundef %0, ptr noundef nonnull @.str.38, double noundef %11) #20
  %13 = tail call i64 @fwrite(ptr nonnull @.str.39, i64 2, i64 1, ptr %0)
  %14 = getelementptr inbounds nuw i8, ptr %1, i64 8
  %15 = load i32, ptr %14, align 8, !tbaa !35
  %16 = icmp sgt i32 %15, 0
  br i1 %16, label %.lr.ph, label %._crit_edge

.lr.ph:                                           ; preds = %4
  %17 = getelementptr inbounds nuw i8, ptr %2, i64 76
  br label %18

18:                                               ; preds = %.lr.ph, %18
  %indvars.iv = phi i64 [ 0, %.lr.ph ], [ %indvars.iv.next, %18 ]
  %19 = getelementptr inbounds nuw [6 x float], ptr %17, i64 0, i64 %indvars.iv
  %20 = load float, ptr %19, align 4, !tbaa !39
  %21 = fcmp oeq float %20, -9.999000e+03
  %22 = fpext float %20 to double
  %23 = select i1 %21, double 0.000000e+00, double %22
  %24 = tail call i32 (ptr, ptr, ...) @fprintf(ptr noundef %0, ptr noundef nonnull @.str.40, double noundef %23) #20
  %indvars.iv.next = add nuw nsw i64 %indvars.iv, 1
  %25 = load i32, ptr %14, align 8, !tbaa !35
  %26 = sext i32 %25 to i64
  %27 = icmp slt i64 %indvars.iv.next, %26
  br i1 %27, label %18, label %._crit_edge, !llvm.loop !107

._crit_edge:                                      ; preds = %18, %4
  %28 = getelementptr inbounds nuw i8, ptr %2, i64 72
  %29 = load float, ptr %28, align 8, !tbaa !61
  %30 = fpext float %29 to double
  %31 = tail call i32 (ptr, ptr, ...) @fprintf(ptr noundef %0, ptr noundef nonnull @.str.38, double noundef %30) #20
  %32 = tail call i64 @fwrite(ptr nonnull @.str.41, i64 3, i64 1, ptr %0)
  store i8 0, ptr @Super_WriteLibraryGateName.Buffer, align 16, !tbaa !103
  tail call void @Super_WriteLibraryGateName_rec(ptr noundef nonnull readonly %2, ptr noundef nonnull @Super_WriteLibraryGateName.Buffer)
  %fputs = tail call i32 @fputs(ptr nonnull @Super_WriteLibraryGateName.Buffer, ptr %0)
  %fputc = tail call i32 @fputc(i32 10, ptr %0)
  ret void
}